; Function Attrs: nounwind uwtable
define range(i32 -29, 1) i32 @pmix20_bfrop_pack_timeval(ptr noundef readnone captures(none) %0, ptr noundef %1, ptr noundef readonly captures(none) %2, i32 noundef %3, i16 noundef zeroext %4) local_unnamed_addr #0 {
  %6 = alloca [2 x i64], align 16
  call void @llvm.lifetime.start.p0(i64 16, ptr nonnull %6) #8
  %7 = icmp sgt i32 %3, 0
  br i1 %7, label %.lr.ph, label %pmix20_bfrop_pack_int64.exit

.lr.ph:                                           ; preds = %5
  %8 = getelementptr inbounds nuw i8, ptr %6, i64 8
  %9 = getelementptr inbounds nuw i8, ptr %1, i64 136
  %10 = getelementptr inbounds nuw i8, ptr %1, i64 160
  %wide.trip.count = zext nneg i32 %3 to i64
  br label %11

11:                                               ; preds = %.lr.ph, %29
  %indvars.iv = phi i64 [ 0, %.lr.ph ], [ %indvars.iv.next, %29 ]
  %12 = getelementptr inbounds nuw %struct.timeval, ptr %2, i64 %indvars.iv
  %13 = load i64, ptr %12, align 8, !tbaa !53
  store i64 %13, ptr %6, align 16, !tbaa !55
  %14 = getelementptr inbounds nuw i8, ptr %12, i64 8
  %15 = load i64, ptr %14, align 8, !tbaa !56
  store i64 %15, ptr %8, align 8, !tbaa !55
  %16 = load i32, ptr getelementptr inbounds nuw (i8, ptr @pmix_bfrops_base_framework, i64 76), align 4, !tbaa !14
  %or.cond.i = icmp ult i32 %16, 64
  br i1 %or.cond.i, label %17, label %23

17:                                               ; preds = %11
  %18 = zext nneg i32 %16 to i64
  %19 = getelementptr inbounds nuw [0 x %struct.pmix_output_desc_t], ptr @pmix_output_info, i64 0, i64 %18, i32 2
  %20 = load i32, ptr %19, align 4, !tbaa !20
  %21 = icmp sgt i32 %20, 19
  br i1 %21, label %22, label %23

22:                                               ; preds = %17
  tail call void (i32, ptr, ...) @pmix_output(i32 noundef %16, ptr noundef nonnull @.str.5, i32 noundef 2) #8
  br label %23

23:                                               ; preds = %22, %17, %11
  %24 = tail call ptr @pmix_bfrop_buffer_extend(ptr noundef %1, i64 noundef 16) #8
  %25 = icmp eq ptr %24, null
  br i1 %25, label %pmix20_bfrop_pack_int64.exit, label %.lr.ph.i

.lr.ph.i:                                         ; preds = %23, %.lr.ph.i
  %indvars.iv.i = phi i64 [ %indvars.iv.next.i, %.lr.ph.i ], [ 0, %23 ]
  %.01823.i = phi ptr [ %28, %.lr.ph.i ], [ %24, %23 ]
  %26 = shl nuw nsw i64 %indvars.iv.i, 3
  %27 = getelementptr inbounds nuw i8, ptr %6, i64 %26
  %.0.copyload.i = load i64, ptr %27, align 8
  %.sroa.0.0.insert.insert.i.i = tail call noundef i64 @llvm.bswap.i64(i64 %.0.copyload.i)
  store i64 %.sroa.0.0.insert.insert.i.i, ptr %.01823.i, align 1
  %28 = getelementptr inbounds nuw i8, ptr %.01823.i, i64 8
  %indvars.iv.next.i = add nuw nsw i64 %indvars.iv.i, 1
  %exitcond.not.i = icmp eq i64 %indvars.iv.next.i, 2
  br i1 %exitcond.not.i, label %29, label %.lr.ph.i, !llvm.loop !44

29:                                               ; preds = %.lr.ph.i
  %30 = load ptr, ptr %9, align 8, !tbaa !23
  %31 = getelementptr inbounds nuw i8, ptr %30, i64 16
  store ptr %31, ptr %9, align 8, !tbaa !23
  %32 = load i64, ptr %10, align 8, !tbaa !24
  %33 = add i64 %32, 16
  store i64 %33, ptr %10, align 8, !tbaa !24
  %indvars.iv.next = add nuw nsw i64 %indvars.iv, 1
  %exitcond.not = icmp eq i64 %indvars.iv.next, %wide.trip.count
  br i1 %exitcond.not, label %pmix20_bfrop_pack_int64.exit, label %11, !llvm.loop !57

pmix20_bfrop_pack_int64.exit:                     ; preds = %29, %23, %5
  %.0 = phi i32 [ 0, %5 ], [ -29, %23 ], [ 0, %29 ]
  call void @llvm.lifetime.end.p0(i64 16, ptr nonnull %6) #8
  ret i32 %.0
}